; Function Attrs: mustprogress nounwind uwtable
define dso_local noundef i32 @_ZN4node6crypto7TLSWrap5GetFDEv(ptr nocapture noundef nonnull readonly align 8 dereferenceable(457) %this) unnamed_addr #3 align 2 {
entry:
  %stream_.i.i = getelementptr inbounds i8, ptr %this, i64 128
  %0 = load ptr, ptr %stream_.i.i, align 8
  %vtable = load ptr, ptr %0, align 8
  %vfn = getelementptr inbounds i8, ptr %vtable, i64 104
  %1 = load ptr, ptr %vfn, align 8
  %call2 = tail call noundef i32 %1(ptr noundef nonnull align 8 dereferenceable(64) %0) #23
  ret i32 %call2
}